target datalayout = "e-m:e-p270:32:32-p271:32:32-p272:64:64-i64:64-i128:128-f80:128-n8:16:32:64-S128"
target triple = "x86_64-pc-linux-gnu"

%"class.pxrInternal_v0_24__pxrReserved__::Vt_ArrayBase" = type { %"struct.pxrInternal_v0_24__pxrReserved__::Vt_ShapeData", ptr }
%"struct.pxrInternal_v0_24__pxrReserved__::Vt_ShapeData" = type { i64, [3 x i32] }
%"class.pxrInternal_v0_24__pxrReserved__::VtArray.107" = type { %"class.pxrInternal_v0_24__pxrReserved__::Vt_ArrayBase", ptr }
%"class.std::initializer_list.108" = type { ptr, i64 }

; Function Attrs: mustprogress uwtable
define noundef zeroext i1 @_ZNK32pxrInternal_v0_24__pxrReserved__21UsdGeomPointInstancer7InvisIdElRKNS_11UsdTimeCodeE(ptr noundef nonnull align 8 dereferenceable(24) %0, i64 noundef %1, ptr noundef nonnull align 8 dereferenceable(8) %2) #0 align 2 personality ptr @__gxx_personality_v0 {
  %4 = alloca ptr, align 8
  %5 = alloca i64, align 8
  %6 = alloca ptr, align 8
  %7 = alloca %"class.pxrInternal_v0_24__pxrReserved__::VtArray.107", align 8
  %8 = alloca %"class.std::initializer_list.108", align 8
  %9 = alloca [1 x i64], align 8
  %10 = alloca ptr, align 8
  %11 = alloca i32, align 4
  store ptr %0, ptr %4, align 8
  store i64 %1, ptr %5, align 8
  store ptr %2, ptr %6, align 8
  %12 = load ptr, ptr %4, align 8
  %13 = load i64, ptr %5, align 8
  store i64 %13, ptr %9, align 8
  %14 = getelementptr inbounds nuw %"class.std::initializer_list.108", ptr %8, i32 0, i32 0
  store ptr %9, ptr %14, align 8
  %15 = getelementptr inbounds nuw %"class.std::initializer_list.108", ptr %8, i32 0, i32 1
  store i64 1, ptr %15, align 8
  %16 = getelementptr inbounds nuw { ptr, i64 }, ptr %8, i32 0, i32 0
  %17 = load ptr, ptr %16, align 8
  %18 = getelementptr inbounds nuw { ptr, i64 }, ptr %8, i32 0, i32 1
  %19 = load i64, ptr %18, align 8
  call void @_ZN32pxrInternal_v0_24__pxrReserved__7VtArrayIlEC1ESt16initializer_listIlE(ptr noundef nonnull align 8 dereferenceable(40) %7, ptr %17, i64 %19)
  %20 = load ptr, ptr %6, align 8
  %21 = invoke noundef zeroext i1 @_ZNK32pxrInternal_v0_24__pxrReserved__21UsdGeomPointInstancer8InvisIdsERKNS_7VtArrayIlEERKNS_11UsdTimeCodeE(ptr noundef nonnull align 8 dereferenceable(24) %12, ptr noundef nonnull align 8 dereferenceable(40) %7, ptr noundef nonnull align 8 dereferenceable(8) %20)
          to label %22 unwind label %23

22:                                               ; preds = %3
  call void @_ZN32pxrInternal_v0_24__pxrReserved__7VtArrayIlED1Ev(ptr noundef nonnull align 8 dereferenceable(40) %7) #6
  ret i1 %21

23:                                               ; preds = %3
  %24 = landingpad { ptr, i32 }
          cleanup
  %25 = extractvalue { ptr, i32 } %24, 0
  store ptr %25, ptr %10, align 8
  %26 = extractvalue { ptr, i32 } %24, 1
  store i32 %26, ptr %11, align 4
  call void @_ZN32pxrInternal_v0_24__pxrReserved__7VtArrayIlED1Ev(ptr noundef nonnull align 8 dereferenceable(40) %7) #6
  br label %27

27:                                               ; preds = %23
  %28 = load ptr, ptr %10, align 8
  %29 = load i32, ptr %11, align 4
  %30 = insertvalue { ptr, i32 } poison, ptr %28, 0
  %31 = insertvalue { ptr, i32 } %30, i32 %29, 1
  resume { ptr, i32 } %31
}